target datalayout = "e-m:e-p270:32:32-p271:32:32-p272:64:64-i64:64-i128:128-f80:128-n8:16:32:64-S128"
target triple = "x86_64-pc-linux-gnu"

%"struct.std::pair" = type { i64, i64 }

; Function Attrs: inlinehint mustprogress nounwind uwtable
define linkonce_odr noundef i64 @_ZN5folly8external8farmhash13Uint128High64ESt4pairImmE(i64 %0, i64 %1) #3 comdat {
  %3 = alloca %"struct.std::pair", align 8
  %4 = getelementptr inbounds nuw { i64, i64 }, ptr %3, i32 0, i32 0
  store i64 %0, ptr %4, align 8
  %5 = getelementptr inbounds nuw { i64, i64 }, ptr %3, i32 0, i32 1
  store i64 %1, ptr %5, align 8
  %6 = getelementptr inbounds nuw %"struct.std::pair", ptr %3, i32 0, i32 1
  %7 = load i64, ptr %6, align 8, !tbaa !18
  ret i64 %7
}

; Function Attrs: inlinehint mustprogress nounwind uwtable
define linkonce_odr noundef i64 @_ZN5folly8external8farmhash12Uint128Low64ESt4pairImmE(i64 %0, i64 %1) #3 comdat {
  %3 = alloca %"struct.std::pair", align 8
  %4 = getelementptr inbounds nuw { i64, i64 }, ptr %3, i32 0, i32 0
  store i64 %0, ptr %4, align 8
  %5 = getelementptr inbounds nuw { i64, i64 }, ptr %3, i32 0, i32 1
  store i64 %1, ptr %5, align 8
  %6 = getelementptr inbounds nuw %"struct.std::pair", ptr %3, i32 0, i32 0
  %7 = load i64, ptr %6, align 8, !tbaa !16
  ret i64 %7
}

; Function Attrs: mustprogress nounwind uwtable
define linkonce_odr void @_ZNSt4pairImmEC2IRmS2_TnNSt9enable_ifIXaaclsr5_PCCPE22_MoveConstructiblePairIT_T0_EEclsr5_PCCPE30_ImplicitlyMoveConvertiblePairIS4_S5_EEEbE4typeELb1EEEOS4_OS5_(ptr noundef nonnull align 8 dereferenceable(16) %0, ptr noundef nonnull align 8 dereferenceable(8) %1, ptr noundef nonnull align 8 dereferenceable(8) %2) unnamed_addr #4 comdat align 2 {
  %4 = alloca ptr, align 8
  %5 = alloca ptr, align 8
  %6 = alloca ptr, align 8
  store ptr %0, ptr %4, align 8, !tbaa !24
  store ptr %1, ptr %5, align 8, !tbaa !28
  store ptr %2, ptr %6, align 8, !tbaa !28
  %7 = load ptr, ptr %4, align 8
  %8 = getelementptr inbounds nuw %"struct.std::pair", ptr %7, i32 0, i32 0
  %9 = load ptr, ptr %5, align 8, !tbaa !28
  %10 = load i64, ptr %9, align 8, !tbaa !12
  store i64 %10, ptr %8, align 8, !tbaa !16
  %11 = getelementptr inbounds nuw %"struct.std::pair", ptr %7, i32 0, i32 1
  %12 = load ptr, ptr %6, align 8, !tbaa !28
  %13 = load i64, ptr %12, align 8, !tbaa !12
  store i64 %13, ptr %11, align 8, !tbaa !18
  ret void
}

; Function Attrs: inlinehint mustprogress uwtable
define linkonce_odr noundef i64 @_ZN5folly8external8farmhash11Hash128to64ESt4pairImmE(i64 %0, i64 %1) #2 comdat {
  %3 = alloca %"struct.std::pair", align 8
  %4 = alloca i64, align 8
  %5 = alloca i64, align 8
  %6 = alloca %"struct.std::pair", align 8
  %7 = alloca %"struct.std::pair", align 8
  %8 = alloca i64, align 8
  %9 = alloca %"struct.std::pair", align 8
  %10 = getelementptr inbounds nuw { i64, i64 }, ptr %3, i32 0, i32 0
  store i64 %0, ptr %10, align 8
  %11 = getelementptr inbounds nuw { i64, i64 }, ptr %3, i32 0, i32 1
  store i64 %1, ptr %11, align 8
  call void @llvm.lifetime.start.p0(i64 8, ptr %4) #8
  store i64 -7070675565921424023, ptr %4, align 8, !tbaa !12
  call void @llvm.lifetime.start.p0(i64 8, ptr %5) #8
  call void @llvm.memcpy.p0.p0.i64(ptr align 8 %6, ptr align 8 %3, i64 16, i1 false)
  %12 = getelementptr inbounds nuw { i64, i64 }, ptr %6, i32 0, i32 0
  %13 = load i64, ptr %12, align 8
  %14 = getelementptr inbounds nuw { i64, i64 }, ptr %6, i32 0, i32 1
  %15 = load i64, ptr %14, align 8
  %16 = call noundef i64 @_ZN5folly8external8farmhash12Uint128Low64ESt4pairImmE(i64 %13, i64 %15)
  call void @llvm.memcpy.p0.p0.i64(ptr align 8 %7, ptr align 8 %3, i64 16, i1 false)
  %17 = getelementptr inbounds nuw { i64, i64 }, ptr %7, i32 0, i32 0
  %18 = load i64, ptr %17, align 8
  %19 = getelementptr inbounds nuw { i64, i64 }, ptr %7, i32 0, i32 1
  %20 = load i64, ptr %19, align 8
  %21 = call noundef i64 @_ZN5folly8external8farmhash13Uint128High64ESt4pairImmE(i64 %18, i64 %20)
  %22 = xor i64 %16, %21
  %23 = mul i64 %22, -7070675565921424023
  store i64 %23, ptr %5, align 8, !tbaa !12
  %24 = load i64, ptr %5, align 8, !tbaa !12
  %25 = lshr i64 %24, 47
  %26 = load i64, ptr %5, align 8, !tbaa !12
  %27 = xor i64 %26, %25
  store i64 %27, ptr %5, align 8, !tbaa !12
  call void @llvm.lifetime.start.p0(i64 8, ptr %8) #8
  call void @llvm.memcpy.p0.p0.i64(ptr align 8 %9, ptr align 8 %3, i64 16, i1 false)
  %28 = getelementptr inbounds nuw { i64, i64 }, ptr %9, i32 0, i32 0
  %29 = load i64, ptr %28, align 8
  %30 = getelementptr inbounds nuw { i64, i64 }, ptr %9, i32 0, i32 1
  %31 = load i64, ptr %30, align 8
  %32 = call noundef i64 @_ZN5folly8external8farmhash13Uint128High64ESt4pairImmE(i64 %29, i64 %31)
  %33 = load i64, ptr %5, align 8, !tbaa !12
  %34 = xor i64 %32, %33
  %35 = mul i64 %34, -7070675565921424023
  store i64 %35, ptr %8, align 8, !tbaa !12
  %36 = load i64, ptr %8, align 8, !tbaa !12
  %37 = lshr i64 %36, 47
  %38 = load i64, ptr %8, align 8, !tbaa !12
  %39 = xor i64 %38, %37
  store i64 %39, ptr %8, align 8, !tbaa !12
  %40 = load i64, ptr %8, align 8, !tbaa !12
  %41 = mul i64 %40, -7070675565921424023
  store i64 %41, ptr %8, align 8, !tbaa !12
  %42 = load i64, ptr %8, align 8, !tbaa !12
  call void @llvm.lifetime.end.p0(i64 8, ptr %8) #8
  call void @llvm.lifetime.end.p0(i64 8, ptr %5) #8
  call void @llvm.lifetime.end.p0(i64 8, ptr %4) #8
  ret i64 %42
}

; Function Attrs: inlinehint mustprogress uwtable
define linkonce_odr { i64, i64 } @_ZN5folly8external8farmhash7Uint128Emm(i64 noundef %0, i64 noundef %1) #2 comdat {
  %3 = alloca %"struct.std::pair", align 8
  %4 = alloca i64, align 8
  %5 = alloca i64, align 8
  store i64 %0, ptr %4, align 8, !tbaa !12
  store i64 %1, ptr %5, align 8, !tbaa !12
  call void @_ZNSt4pairImmEC2IRmS2_TnNSt9enable_ifIXaaclsr5_PCCPE22_MoveConstructiblePairIT_T0_EEclsr5_PCCPE30_ImplicitlyMoveConvertiblePairIS4_S5_EEEbE4typeELb1EEEOS4_OS5_(ptr noundef nonnull align 8 dereferenceable(16) %3, ptr noundef nonnull align 8 dereferenceable(8) %4, ptr noundef nonnull align 8 dereferenceable(8) %5)
  %6 = load { i64, i64 }, ptr %3, align 8
  ret { i64, i64 } %6
}

; Function Attrs: inlinehint mustprogress uwtable
define internal noundef i64 @_ZN5folly8external8farmhash10farmhashnaL9HashLen16Emm(i64 noundef %0, i64 noundef %1) #2 {
  %3 = alloca i64, align 8
  %4 = alloca i64, align 8
  %5 = alloca %"struct.std::pair", align 8
  store i64 %0, ptr %3, align 8, !tbaa !12
  store i64 %1, ptr %4, align 8, !tbaa !12
  %6 = load i64, ptr %3, align 8, !tbaa !12
  %7 = load i64, ptr %4, align 8, !tbaa !12
  %8 = call { i64, i64 } @_ZN5folly8external8farmhash7Uint128Emm(i64 noundef %6, i64 noundef %7)
  %9 = getelementptr inbounds nuw { i64, i64 }, ptr %5, i32 0, i32 0
  %10 = extractvalue { i64, i64 } %8, 0
  store i64 %10, ptr %9, align 8
  %11 = getelementptr inbounds nuw { i64, i64 }, ptr %5, i32 0, i32 1
  %12 = extractvalue { i64, i64 } %8, 1
  store i64 %12, ptr %11, align 8
  %13 = getelementptr inbounds nuw { i64, i64 }, ptr %5, i32 0, i32 0
  %14 = load i64, ptr %13, align 8
  %15 = getelementptr inbounds nuw { i64, i64 }, ptr %5, i32 0, i32 1
  %16 = load i64, ptr %15, align 8
  %17 = call noundef i64 @_ZN5folly8external8farmhash11Hash128to64ESt4pairImmE(i64 %14, i64 %16)
  ret i64 %17
}

; Function Attrs: mustprogress uwtable
define noundef i64 @_ZN5folly8external8farmhash10farmhashna15Hash64WithSeedsEPKcmmm(ptr noundef %0, i64 noundef %1, i64 noundef %2, i64 noundef %3) #0 {
  %5 = alloca ptr, align 8
  %6 = alloca i64, align 8
  %7 = alloca i64, align 8
  %8 = alloca i64, align 8
  store ptr %0, ptr %5, align 8, !tbaa !7
  store i64 %1, ptr %6, align 8, !tbaa !12
  store i64 %2, ptr %7, align 8, !tbaa !12
  store i64 %3, ptr %8, align 8, !tbaa !12
  %9 = load ptr, ptr %5, align 8, !tbaa !7
  %10 = load i64, ptr %6, align 8, !tbaa !12
  %11 = call noundef i64 @_ZN5folly8external8farmhash10farmhashna6Hash64EPKcm(ptr noundef %9, i64 noundef %10)
  %12 = load i64, ptr %7, align 8, !tbaa !12
  %13 = sub i64 %11, %12
  %14 = load i64, ptr %8, align 8, !tbaa !12
  %15 = call noundef i64 @_ZN5folly8external8farmhash10farmhashnaL9HashLen16Emm(i64 noundef %13, i64 noundef %14)
  ret i64 %15
}

; Function Attrs: inlinehint mustprogress nounwind uwtable
define internal noundef i64 @_ZN5folly8external8farmhashL10DebugTweakImEET_S3_(i64 noundef %0) #3 {
  %2 = alloca i64, align 8
  store i64 %0, ptr %2, align 8, !tbaa !12
  %3 = load i64, ptr %2, align 8, !tbaa !12
  ret i64 %3
}

; Function Attrs: mustprogress uwtable
define noundef i64 @_ZN5folly8external8farmhash10farmhashna14Hash64WithSeedEPKcmm(ptr noundef %0, i64 noundef %1, i64 noundef %2) #0 {
  %4 = alloca ptr, align 8
  %5 = alloca i64, align 8
  %6 = alloca i64, align 8
  store ptr %0, ptr %4, align 8, !tbaa !7
  store i64 %1, ptr %5, align 8, !tbaa !12
  store i64 %2, ptr %6, align 8, !tbaa !12
  %7 = load ptr, ptr %4, align 8, !tbaa !7
  %8 = load i64, ptr %5, align 8, !tbaa !12
  %9 = load i64, ptr %6, align 8, !tbaa !12
  %10 = call noundef i64 @_ZN5folly8external8farmhash10farmhashna15Hash64WithSeedsEPKcmmm(ptr noundef %7, i64 noundef %8, i64 noundef -7286425919675154353, i64 noundef %9)
  ret i64 %10
}

; Function Attrs: mustprogress uwtable
define noundef i64 @_ZN5folly8external8farmhash14Hash64WithSeedEPKcmm(ptr noundef %0, i64 noundef %1, i64 noundef %2) #0 {
  %4 = alloca ptr, align 8
  %5 = alloca i64, align 8
  %6 = alloca i64, align 8
  store ptr %0, ptr %4, align 8, !tbaa !7
  store i64 %1, ptr %5, align 8, !tbaa !12
  store i64 %2, ptr %6, align 8, !tbaa !12
  %7 = load ptr, ptr %4, align 8, !tbaa !7
  %8 = load i64, ptr %5, align 8, !tbaa !12
  %9 = load i64, ptr %6, align 8, !tbaa !12
  %10 = call noundef i64 @_ZN5folly8external8farmhash10farmhashna14Hash64WithSeedEPKcmm(ptr noundef %7, i64 noundef %8, i64 noundef %9)
  %11 = call noundef i64 @_ZN5folly8external8farmhashL10DebugTweakImEET_S3_(i64 noundef %10)
  ret i64 %11
}